target datalayout = "e-m:e-p270:32:32-p271:32:32-p272:64:64-i64:64-i128:128-f80:128-n8:16:32:64-S128"
target triple = "x86_64-pc-linux-gnu"

%"class.zxing::ArrayRef" = type { %"class.zxing::Counted.base", ptr }
%"class.zxing::Counted.base" = type <{ ptr, i32 }>
%"class.zxing::GenericGFPoly" = type { %"class.zxing::Counted.base", ptr, %"class.zxing::ArrayRef" }
%"class.zxing::Array" = type { %"class.zxing::Counted.base", %"class.std::vector" }
%"class.std::vector" = type { %"struct.std::_Vector_base" }
%"struct.std::_Vector_base" = type { %"struct.std::_Vector_base<int, std::allocator<int>>::_Vector_impl" }
%"struct.std::_Vector_base<int, std::allocator<int>>::_Vector_impl" = type { %"struct.std::_Vector_base<int, std::allocator<int>>::_Vector_impl_data" }
%"struct.std::_Vector_base<int, std::allocator<int>>::_Vector_impl_data" = type { ptr, ptr, ptr }

; Function Attrs: mustprogress nounwind uwtable
define linkonce_odr hidden noundef nonnull align 4 dereferenceable(4) ptr @_ZNSt6vectorIiSaIiEEixEm(ptr noundef nonnull align 8 dereferenceable(24) %0, i64 noundef %1) #4 comdat align 2 {
  %3 = alloca ptr, align 8
  %4 = alloca i64, align 8
  store ptr %0, ptr %3, align 8, !tbaa !80
  store i64 %1, ptr %4, align 8, !tbaa !52
  %5 = load ptr, ptr %3, align 8
  %6 = getelementptr inbounds nuw %"struct.std::_Vector_base", ptr %5, i32 0, i32 0
  %7 = getelementptr inbounds nuw %"struct.std::_Vector_base<int, std::allocator<int>>::_Vector_impl_data", ptr %6, i32 0, i32 0
  %8 = load ptr, ptr %7, align 8, !tbaa !85
  %9 = load i64, ptr %4, align 8, !tbaa !52
  %10 = getelementptr inbounds nuw i32, ptr %8, i64 %9
  ret ptr %10
}

; Function Attrs: mustprogress nounwind uwtable
define linkonce_odr hidden noundef nonnull align 4 dereferenceable(4) ptr @_ZN5zxing5ArrayIiEixEi(ptr noundef nonnull align 8 dereferenceable(40) %0, i32 noundef %1) #4 comdat align 2 {
  %3 = alloca ptr, align 8
  %4 = alloca i32, align 4
  store ptr %0, ptr %3, align 8, !tbaa !28
  store i32 %1, ptr %4, align 4, !tbaa !16
  %5 = load ptr, ptr %3, align 8
  %6 = getelementptr inbounds nuw %"class.zxing::Array", ptr %5, i32 0, i32 1
  %7 = load i32, ptr %4, align 4, !tbaa !16
  %8 = sext i32 %7 to i64
  %9 = call noundef nonnull align 4 dereferenceable(4) ptr @_ZNSt6vectorIiSaIiEEixEm(ptr noundef nonnull align 8 dereferenceable(24) %6, i64 noundef %8) #2
  ret ptr %9
}

; Function Attrs: mustprogress nounwind uwtable
define linkonce_odr hidden noundef i64 @_ZNKSt6vectorIiSaIiEE4sizeEv(ptr noundef nonnull align 8 dereferenceable(24) %0) #4 comdat align 2 {
  %2 = alloca ptr, align 8
  store ptr %0, ptr %2, align 8, !tbaa !80
  %3 = load ptr, ptr %2, align 8
  %4 = getelementptr inbounds nuw %"struct.std::_Vector_base", ptr %3, i32 0, i32 0
  %5 = getelementptr inbounds nuw %"struct.std::_Vector_base<int, std::allocator<int>>::_Vector_impl_data", ptr %4, i32 0, i32 1
  %6 = load ptr, ptr %5, align 8, !tbaa !82
  %7 = getelementptr inbounds nuw %"struct.std::_Vector_base", ptr %3, i32 0, i32 0
  %8 = getelementptr inbounds nuw %"struct.std::_Vector_base<int, std::allocator<int>>::_Vector_impl_data", ptr %7, i32 0, i32 0
  %9 = load ptr, ptr %8, align 8, !tbaa !85
  %10 = ptrtoint ptr %6 to i64
  %11 = ptrtoint ptr %9 to i64
  %12 = sub i64 %10, %11
  %13 = sdiv exact i64 %12, 4
  ret i64 %13
}

; Function Attrs: mustprogress uwtable
define linkonce_odr hidden noundef nonnull align 4 dereferenceable(4) ptr @_ZN5zxing8ArrayRefIiEixEi(ptr noundef nonnull align 8 dereferenceable(24) %0, i32 noundef %1) #3 comdat align 2 {
  %3 = alloca ptr, align 8
  %4 = alloca i32, align 4
  store ptr %0, ptr %3, align 8, !tbaa !10
  store i32 %1, ptr %4, align 4, !tbaa !16
  %5 = load ptr, ptr %3, align 8
  %6 = getelementptr inbounds nuw %"class.zxing::ArrayRef", ptr %5, i32 0, i32 1
  %7 = load ptr, ptr %6, align 8, !tbaa !25
  %8 = load i32, ptr %4, align 4, !tbaa !16
  %9 = call noundef nonnull align 4 dereferenceable(4) ptr @_ZN5zxing5ArrayIiEixEi(ptr noundef nonnull align 8 dereferenceable(40) %7, i32 noundef %8)
  ret ptr %9
}

; Function Attrs: mustprogress nounwind uwtable
define linkonce_odr hidden noundef i32 @_ZNK5zxing5ArrayIiE4sizeEv(ptr noundef nonnull align 8 dereferenceable(40) %0) #4 comdat align 2 {
  %2 = alloca ptr, align 8
  store ptr %0, ptr %2, align 8, !tbaa !28
  %3 = load ptr, ptr %2, align 8
  %4 = getelementptr inbounds nuw %"class.zxing::Array", ptr %3, i32 0, i32 1
  %5 = call noundef i64 @_ZNKSt6vectorIiSaIiEE4sizeEv(ptr noundef nonnull align 8 dereferenceable(24) %4) #2
  %6 = trunc i64 %5 to i32
  ret i32 %6
}

; Function Attrs: mustprogress nounwind uwtable
define linkonce_odr hidden noundef ptr @_ZNK5zxing8ArrayRefIiEptEv(ptr noundef nonnull align 8 dereferenceable(24) %0) #4 comdat align 2 {
  %2 = alloca ptr, align 8
  store ptr %0, ptr %2, align 8, !tbaa !10
  %3 = load ptr, ptr %2, align 8
  %4 = getelementptr inbounds nuw %"class.zxing::ArrayRef", ptr %3, i32 0, i32 1
  %5 = load ptr, ptr %4, align 8, !tbaa !25
  ret ptr %5
}

; Function Attrs: mustprogress uwtable
define hidden noundef i32 @_ZN5zxing13GenericGFPoly14getCoefficientEi(ptr noundef nonnull align 8 dereferenceable(48) %0, i32 noundef %1) #3 align 2 {
  %3 = alloca ptr, align 8
  %4 = alloca i32, align 4
  store ptr %0, ptr %3, align 8, !tbaa !3
  store i32 %1, ptr %4, align 4, !tbaa !16
  %5 = load ptr, ptr %3, align 8
  %6 = getelementptr inbounds nuw %"class.zxing::GenericGFPoly", ptr %5, i32 0, i32 2
  %7 = getelementptr inbounds nuw %"class.zxing::GenericGFPoly", ptr %5, i32 0, i32 2
  %8 = call noundef ptr @_ZNK5zxing8ArrayRefIiEptEv(ptr noundef nonnull align 8 dereferenceable(24) %7)
  %9 = call noundef i32 @_ZNK5zxing5ArrayIiE4sizeEv(ptr noundef nonnull align 8 dereferenceable(40) %8)
  %10 = sub nsw i32 %9, 1
  %11 = load i32, ptr %4, align 4, !tbaa !16
  %12 = sub nsw i32 %10, %11
  %13 = call noundef nonnull align 4 dereferenceable(4) ptr @_ZN5zxing8ArrayRefIiEixEi(ptr noundef nonnull align 8 dereferenceable(24) %6, i32 noundef %12)
  %14 = load i32, ptr %13, align 4, !tbaa !16
  ret i32 %14
}

; Function Attrs: mustprogress uwtable
define hidden noundef i32 @_ZN5zxing13GenericGFPoly10evaluateAtEi(ptr noundef nonnull align 8 dereferenceable(48) %0, i32 noundef %1) #3 align 2 {
  %3 = alloca i32, align 4
  %4 = alloca ptr, align 8
  %5 = alloca i32, align 4
  %6 = alloca i32, align 4
  %7 = alloca i32, align 4
  %8 = alloca i32, align 4
  %9 = alloca i32, align 4
  %10 = alloca i32, align 4
  %11 = alloca i32, align 4
  store ptr %0, ptr %4, align 8, !tbaa !3
  store i32 %1, ptr %5, align 4, !tbaa !16
  %12 = load ptr, ptr %4, align 8
  %13 = load i32, ptr %5, align 4, !tbaa !16
  %14 = icmp eq i32 %13, 0
  br i1 %14, label %15, label %17

15:                                               ; preds = %2
  %16 = call noundef i32 @_ZN5zxing13GenericGFPoly14getCoefficientEi(ptr noundef nonnull align 8 dereferenceable(48) %12, i32 noundef 0)
  store i32 %16, ptr %3, align 4
  br label %67

17:                                               ; preds = %2
  call void @llvm.lifetime.start.p0(i64 4, ptr %6) #2
  %18 = getelementptr inbounds nuw %"class.zxing::GenericGFPoly", ptr %12, i32 0, i32 2
  %19 = call noundef ptr @_ZNK5zxing8ArrayRefIiEptEv(ptr noundef nonnull align 8 dereferenceable(24) %18)
  %20 = call noundef i32 @_ZNK5zxing5ArrayIiE4sizeEv(ptr noundef nonnull align 8 dereferenceable(40) %19)
  store i32 %20, ptr %6, align 4, !tbaa !16
  %21 = load i32, ptr %5, align 4, !tbaa !16
  %22 = icmp eq i32 %21, 1
  br i1 %22, label %23, label %41

23:                                               ; preds = %17
  call void @llvm.lifetime.start.p0(i64 4, ptr %7) #2
  store i32 0, ptr %7, align 4, !tbaa !16
  call void @llvm.lifetime.start.p0(i64 4, ptr %8) #2
  store i32 0, ptr %8, align 4, !tbaa !16
  br label %24

24:                                               ; preds = %36, %23
  %25 = load i32, ptr %8, align 4, !tbaa !16
  %26 = load i32, ptr %6, align 4, !tbaa !16
  %27 = icmp slt i32 %25, %26
  br i1 %27, label %29, label %28

28:                                               ; preds = %24
  call void @llvm.lifetime.end.p0(i64 4, ptr %8) #2
  br label %39

29:                                               ; preds = %24
  %30 = load i32, ptr %7, align 4, !tbaa !16
  %31 = getelementptr inbounds nuw %"class.zxing::GenericGFPoly", ptr %12, i32 0, i32 2
  %32 = load i32, ptr %8, align 4, !tbaa !16
  %33 = call noundef nonnull align 4 dereferenceable(4) ptr @_ZN5zxing8ArrayRefIiEixEi(ptr noundef nonnull align 8 dereferenceable(24) %31, i32 noundef %32)
  %34 = load i32, ptr %33, align 4, !tbaa !16
  %35 = call noundef i32 @_ZN5zxing9GenericGF13addOrSubtractEii(i32 noundef %30, i32 noundef %34)
  store i32 %35, ptr %7, align 4, !tbaa !16
  br label %36

36:                                               ; preds = %29
  %37 = load i32, ptr %8, align 4, !tbaa !16
  %38 = add nsw i32 %37, 1
  store i32 %38, ptr %8, align 4, !tbaa !16
  br label %24, !llvm.loop !37

39:                                               ; preds = %28
  %40 = load i32, ptr %7, align 4, !tbaa !16
  store i32 %40, ptr %3, align 4
  store i32 1, ptr %9, align 4
  call void @llvm.lifetime.end.p0(i64 4, ptr %7) #2
  br label %66

41:                                               ; preds = %17
  call void @llvm.lifetime.start.p0(i64 4, ptr %10) #2
  %42 = getelementptr inbounds nuw %"class.zxing::GenericGFPoly", ptr %12, i32 0, i32 2
  %43 = call noundef nonnull align 4 dereferenceable(4) ptr @_ZN5zxing8ArrayRefIiEixEi(ptr noundef nonnull align 8 dereferenceable(24) %42, i32 noundef 0)
  %44 = load i32, ptr %43, align 4, !tbaa !16
  store i32 %44, ptr %10, align 4, !tbaa !16
  call void @llvm.lifetime.start.p0(i64 4, ptr %11) #2
  store i32 1, ptr %11, align 4, !tbaa !16
  br label %45

45:                                               ; preds = %61, %41
  %46 = load i32, ptr %11, align 4, !tbaa !16
  %47 = load i32, ptr %6, align 4, !tbaa !16
  %48 = icmp slt i32 %46, %47
  br i1 %48, label %50, label %49

49:                                               ; preds = %45
  store i32 5, ptr %9, align 4
  call void @llvm.lifetime.end.p0(i64 4, ptr %11) #2
  br label %64

50:                                               ; preds = %45
  %51 = getelementptr inbounds nuw %"class.zxing::GenericGFPoly", ptr %12, i32 0, i32 1
  %52 = load ptr, ptr %51, align 8, !tbaa !38
  %53 = load i32, ptr %5, align 4, !tbaa !16
  %54 = load i32, ptr %10, align 4, !tbaa !16
  %55 = call noundef i32 @_ZN5zxing9GenericGF8multiplyEii(ptr noundef nonnull align 8 dereferenceable(92) %52, i32 noundef %53, i32 noundef %54)
  %56 = getelementptr inbounds nuw %"class.zxing::GenericGFPoly", ptr %12, i32 0, i32 2
  %57 = load i32, ptr %11, align 4, !tbaa !16
  %58 = call noundef nonnull align 4 dereferenceable(4) ptr @_ZN5zxing8ArrayRefIiEixEi(ptr noundef nonnull align 8 dereferenceable(24) %56, i32 noundef %57)
  %59 = load i32, ptr %58, align 4, !tbaa !16
  %60 = call noundef i32 @_ZN5zxing9GenericGF13addOrSubtractEii(i32 noundef %55, i32 noundef %59)
  store i32 %60, ptr %10, align 4, !tbaa !16
  br label %61

61:                                               ; preds = %50
  %62 = load i32, ptr %11, align 4, !tbaa !16
  %63 = add nsw i32 %62, 1
  store i32 %63, ptr %11, align 4, !tbaa !16
  br label %45, !llvm.loop !40

64:                                               ; preds = %49
  %65 = load i32, ptr %10, align 4, !tbaa !16
  store i32 %65, ptr %3, align 4
  store i32 1, ptr %9, align 4
  call void @llvm.lifetime.end.p0(i64 4, ptr %10) #2
  br label %66

66:                                               ; preds = %64, %39
  call void @llvm.lifetime.end.p0(i64 4, ptr %6) #2
  br label %67

67:                                               ; preds = %66, %15
  %68 = load i32, ptr %3, align 4
  ret i32 %68
}