; Function Attrs: mustprogress uwtable
define hidden noundef i32 @_ZN5zxing13GenericGFPoly10evaluateAtEi(ptr noundef nonnull readonly align 8 captures(none) dereferenceable(48) %0, i32 noundef %1) local_unnamed_addr #2 align 2 {
  %3 = icmp eq i32 %1, 0
  %4 = getelementptr inbounds nuw i8, ptr %0, i64 40
  %5 = load ptr, ptr %4, align 8, !tbaa !13
  %6 = getelementptr inbounds nuw i8, ptr %5, i64 16
  %7 = getelementptr inbounds nuw i8, ptr %5, i64 24
  %8 = load ptr, ptr %7, align 8, !tbaa !16
  %9 = load ptr, ptr %6, align 8, !tbaa !19
  %10 = ptrtoint ptr %8 to i64
  %11 = ptrtoint ptr %9 to i64
  %12 = sub i64 %10, %11
  br i1 %3, label %13, label %18

13:                                               ; preds = %2
  %14 = shl i64 %12, 30
  %sext = add i64 %14, -4294967296
  %15 = ashr i64 %sext, 32
  %16 = getelementptr inbounds nuw i32, ptr %9, i64 %15
  %17 = load i32, ptr %16, align 4, !tbaa !28
  br label %.loopexit

18:                                               ; preds = %2
  %19 = lshr i64 %12, 2
  %20 = trunc i64 %19 to i32
  %21 = icmp eq i32 %1, 1
  br i1 %21, label %.preheader, label %29

.preheader:                                       ; preds = %18
  %22 = icmp sgt i32 %20, 0
  br i1 %22, label %.lr.ph26.preheader, label %.loopexit

.lr.ph26.preheader:                               ; preds = %.preheader
  %wide.trip.count34 = and i64 %19, 2147483647
  br label %.lr.ph26

.lr.ph26:                                         ; preds = %.lr.ph26.preheader, %.lr.ph26
  %indvars.iv31 = phi i64 [ 0, %.lr.ph26.preheader ], [ %indvars.iv.next32, %.lr.ph26 ]
  %.01824 = phi i32 [ 0, %.lr.ph26.preheader ], [ %28, %.lr.ph26 ]
  %23 = load ptr, ptr %4, align 8, !tbaa !13
  %24 = getelementptr inbounds nuw i8, ptr %23, i64 16
  %25 = load ptr, ptr %24, align 8, !tbaa !19
  %26 = getelementptr inbounds nuw i32, ptr %25, i64 %indvars.iv31
  %27 = load i32, ptr %26, align 4, !tbaa !28
  %28 = tail call noundef i32 @_ZN5zxing9GenericGF13addOrSubtractEii(i32 noundef %.01824, i32 noundef %27)
  %indvars.iv.next32 = add nuw nsw i64 %indvars.iv31, 1
  %exitcond35.not = icmp eq i64 %indvars.iv.next32, %wide.trip.count34
  br i1 %exitcond35.not, label %.loopexit, label %.lr.ph26, !llvm.loop !39

29:                                               ; preds = %18
  %30 = load i32, ptr %9, align 4, !tbaa !28
  %31 = icmp sgt i32 %20, 1
  br i1 %31, label %.lr.ph, label %.loopexit

.lr.ph:                                           ; preds = %29
  %32 = getelementptr inbounds nuw i8, ptr %0, i64 16
  %wide.trip.count = and i64 %19, 2147483647
  br label %33

33:                                               ; preds = %.lr.ph, %33
  %indvars.iv = phi i64 [ 1, %.lr.ph ], [ %indvars.iv.next, %33 ]
  %.01622 = phi i32 [ %30, %.lr.ph ], [ %41, %33 ]
  %34 = load ptr, ptr %32, align 8, !tbaa !40
  %35 = tail call noundef i32 @_ZN5zxing9GenericGF8multiplyEii(ptr noundef nonnull align 8 dereferenceable(92) %34, i32 noundef %1, i32 noundef %.01622)
  %36 = load ptr, ptr %4, align 8, !tbaa !13
  %37 = getelementptr inbounds nuw i8, ptr %36, i64 16
  %38 = load ptr, ptr %37, align 8, !tbaa !19
  %39 = getelementptr inbounds nuw i32, ptr %38, i64 %indvars.iv
  %40 = load i32, ptr %39, align 4, !tbaa !28
  %41 = tail call noundef i32 @_ZN5zxing9GenericGF13addOrSubtractEii(i32 noundef %35, i32 noundef %40)
  %indvars.iv.next = add nuw nsw i64 %indvars.iv, 1
  %exitcond.not = icmp eq i64 %indvars.iv.next, %wide.trip.count
  br i1 %exitcond.not, label %.loopexit, label %33, !llvm.loop !42

.loopexit:                                        ; preds = %33, %.lr.ph26, %29, %.preheader, %13
  %.019 = phi i32 [ %17, %13 ], [ 0, %.preheader ], [ %30, %29 ], [ %28, %.lr.ph26 ], [ %41, %33 ]
  ret i32 %.019
}